target datalayout = "e-m:e-p270:32:32-p271:32:32-p272:64:64-i64:64-i128:128-f80:128-n8:16:32:64-S128"
target triple = "x86_64-pc-linux-gnu"

%struct.AVRational = type { i32, i32 }
%struct.AVChannelLayout = type { i32, i32, %union.anon.0, ptr }
%union.anon.0 = type { i64 }
%struct.CDGraphicsContext = type { ptr, i32, i32, [16 x i8], i32 }
%struct.AVFrame = type { [8 x ptr], [8 x i32], ptr, i32, i32, i32, i32, i32, %struct.AVRational, i64, i64, %struct.AVRational, i32, ptr, i32, i32, [8 x ptr], ptr, i32, ptr, i32, i32, i32, i32, i32, i32, i32, i64, ptr, i32, ptr, ptr, i64, i64, i64, i64, ptr, %struct.AVChannelLayout, i64 }

; Function Attrs: nounwind uwtable
define internal void @cdg_load_palette(ptr noundef %0, ptr noundef %1, i32 noundef %2) #1 {
  %4 = alloca ptr, align 8
  %5 = alloca ptr, align 8
  %6 = alloca i32, align 4
  %7 = alloca i8, align 1
  %8 = alloca i8, align 1
  %9 = alloca i8, align 1
  %10 = alloca i16, align 2
  %11 = alloca i32, align 4
  %12 = alloca i32, align 4
  %13 = alloca ptr, align 8
  store ptr %0, ptr %4, align 8, !tbaa !29
  store ptr %1, ptr %5, align 8, !tbaa !48
  store i32 %2, ptr %6, align 4, !tbaa !34
  call void @llvm.lifetime.start.p0(i64 1, ptr %7) #8
  call void @llvm.lifetime.start.p0(i64 1, ptr %8) #8
  call void @llvm.lifetime.start.p0(i64 1, ptr %9) #8
  call void @llvm.lifetime.start.p0(i64 2, ptr %10) #8
  call void @llvm.lifetime.start.p0(i64 4, ptr %11) #8
  call void @llvm.lifetime.start.p0(i64 4, ptr %12) #8
  %14 = load i32, ptr %6, align 4, !tbaa !34
  %15 = icmp ne i32 %14, 0
  %16 = select i1 %15, i32 0, i32 8
  store i32 %16, ptr %12, align 4, !tbaa !34
  call void @llvm.lifetime.start.p0(i64 8, ptr %13) #8
  %17 = load ptr, ptr %4, align 8, !tbaa !29
  %18 = getelementptr inbounds nuw %struct.CDGraphicsContext, ptr %17, i32 0, i32 0
  %19 = load ptr, ptr %18, align 8, !tbaa !31
  %20 = getelementptr inbounds nuw %struct.AVFrame, ptr %19, i32 0, i32 0
  %21 = getelementptr inbounds [8 x ptr], ptr %20, i64 0, i64 1
  %22 = load ptr, ptr %21, align 8, !tbaa !48
  store ptr %22, ptr %13, align 8, !tbaa !40
  store i32 0, ptr %11, align 4, !tbaa !34
  br label %23

23:                                               ; preds = %90, %3
  %24 = load i32, ptr %11, align 4, !tbaa !34
  %25 = icmp slt i32 %24, 8
  br i1 %25, label %26, label %93

26:                                               ; preds = %23
  %27 = load ptr, ptr %5, align 8, !tbaa !48
  %28 = load i32, ptr %11, align 4, !tbaa !34
  %29 = mul nsw i32 2, %28
  %30 = sext i32 %29 to i64
  %31 = getelementptr inbounds i8, ptr %27, i64 %30
  %32 = load i8, ptr %31, align 1, !tbaa !35
  %33 = zext i8 %32 to i32
  %34 = shl i32 %33, 6
  %35 = load ptr, ptr %5, align 8, !tbaa !48
  %36 = load i32, ptr %11, align 4, !tbaa !34
  %37 = mul nsw i32 2, %36
  %38 = add nsw i32 %37, 1
  %39 = sext i32 %38 to i64
  %40 = getelementptr inbounds i8, ptr %35, i64 %39
  %41 = load i8, ptr %40, align 1, !tbaa !35
  %42 = zext i8 %41 to i32
  %43 = and i32 %42, 63
  %44 = add nsw i32 %34, %43
  %45 = trunc i32 %44 to i16
  store i16 %45, ptr %10, align 2, !tbaa !61
  %46 = load i16, ptr %10, align 2, !tbaa !61
  %47 = zext i16 %46 to i32
  %48 = ashr i32 %47, 8
  %49 = and i32 %48, 15
  %50 = mul nsw i32 %49, 17
  %51 = trunc i32 %50 to i8
  store i8 %51, ptr %7, align 1, !tbaa !35
  %52 = load i16, ptr %10, align 2, !tbaa !61
  %53 = zext i16 %52 to i32
  %54 = ashr i32 %53, 4
  %55 = and i32 %54, 15
  %56 = mul nsw i32 %55, 17
  %57 = trunc i32 %56 to i8
  store i8 %57, ptr %8, align 1, !tbaa !35
  %58 = load i16, ptr %10, align 2, !tbaa !61
  %59 = zext i16 %58 to i32
  %60 = and i32 %59, 15
  %61 = mul nsw i32 %60, 17
  %62 = trunc i32 %61 to i8
  store i8 %62, ptr %9, align 1, !tbaa !35
  %63 = load ptr, ptr %4, align 8, !tbaa !29
  %64 = getelementptr inbounds nuw %struct.CDGraphicsContext, ptr %63, i32 0, i32 3
  %65 = load i32, ptr %11, align 4, !tbaa !34
  %66 = load i32, ptr %12, align 4, !tbaa !34
  %67 = add nsw i32 %65, %66
  %68 = sext i32 %67 to i64
  %69 = getelementptr inbounds [16 x i8], ptr %64, i64 0, i64 %68
  %70 = load i8, ptr %69, align 1, !tbaa !35
  %71 = zext i8 %70 to i32
  %72 = shl i32 %71, 24
  %73 = load i8, ptr %7, align 1, !tbaa !35
  %74 = zext i8 %73 to i32
  %75 = shl i32 %74, 16
  %76 = or i32 %72, %75
  %77 = load i8, ptr %8, align 1, !tbaa !35
  %78 = zext i8 %77 to i32
  %79 = shl i32 %78, 8
  %80 = or i32 %76, %79
  %81 = load i8, ptr %9, align 1, !tbaa !35
  %82 = zext i8 %81 to i32
  %83 = or i32 %80, %82
  %84 = load ptr, ptr %13, align 8, !tbaa !40
  %85 = load i32, ptr %11, align 4, !tbaa !34
  %86 = load i32, ptr %12, align 4, !tbaa !34
  %87 = add nsw i32 %85, %86
  %88 = sext i32 %87 to i64
  %89 = getelementptr inbounds i32, ptr %84, i64 %88
  store i32 %83, ptr %89, align 4, !tbaa !34
  br label %90

90:                                               ; preds = %26
  %91 = load i32, ptr %11, align 4, !tbaa !34
  %92 = add nsw i32 %91, 1
  store i32 %92, ptr %11, align 4, !tbaa !34
  br label %23, !llvm.loop !63

93:                                               ; preds = %23
  call void @llvm.lifetime.end.p0(i64 8, ptr %13) #8
  call void @llvm.lifetime.end.p0(i64 4, ptr %12) #8
  call void @llvm.lifetime.end.p0(i64 4, ptr %11) #8
  call void @llvm.lifetime.end.p0(i64 2, ptr %10) #8
  call void @llvm.lifetime.end.p0(i64 1, ptr %9) #8
  call void @llvm.lifetime.end.p0(i64 1, ptr %8) #8
  call void @llvm.lifetime.end.p0(i64 1, ptr %7) #8
  ret void
}