; Function Attrs: nofree norecurse nosync nounwind memory(readwrite, inaccessiblemem: none) uwtable
define internal fastcc void @cdg_load_palette(ptr noundef readonly captures(none) %0, ptr noundef nonnull readonly captures(none) %1, i32 noundef range(i32 0, 2) %2) unnamed_addr #2 {
  %.not = icmp eq i32 %2, 0
  %4 = select i1 %.not, i64 8, i64 0
  %5 = load ptr, ptr %0, align 8, !tbaa !27
  %6 = getelementptr inbounds nuw i8, ptr %5, i64 8
  %7 = load ptr, ptr %6, align 8, !tbaa !37
  %8 = getelementptr inbounds nuw i8, ptr %0, i64 16
  br label %9

9:                                                ; preds = %3, %9
  %indvars.iv = phi i64 [ 0, %3 ], [ %indvars.iv.next, %9 ]
  %10 = shl nuw nsw i64 %indvars.iv, 1
  %11 = getelementptr inbounds nuw i8, ptr %1, i64 %10
  %12 = load i8, ptr %11, align 1, !tbaa !30
  %13 = shl i8 %12, 6
  %14 = getelementptr inbounds nuw i8, ptr %11, i64 1
  %15 = load i8, ptr %14, align 1, !tbaa !30
  %16 = and i8 %15, 48
  %17 = or disjoint i8 %16, %13
  %18 = lshr i8 %12, 2
  %19 = and i8 %18, 15
  %20 = mul nuw i8 %19, 17
  %21 = lshr exact i8 %17, 4
  %22 = or disjoint i8 %21, %17
  %23 = and i8 %15, 15
  %narrow = mul nuw i8 %23, 17
  %24 = or disjoint i64 %indvars.iv, %4
  %25 = getelementptr inbounds nuw [16 x i8], ptr %8, i64 0, i64 %24
  %26 = load i8, ptr %25, align 1, !tbaa !30
  %27 = zext i8 %26 to i32
  %28 = shl nuw i32 %27, 24
  %29 = zext i8 %20 to i32
  %30 = shl nuw nsw i32 %29, 16
  %31 = or disjoint i32 %30, %28
  %32 = zext i8 %22 to i32
  %33 = shl nuw nsw i32 %32, 8
  %34 = or disjoint i32 %33, %31
  %35 = zext i8 %narrow to i32
  %36 = or disjoint i32 %34, %35
  %37 = getelementptr inbounds nuw i32, ptr %7, i64 %24
  store i32 %36, ptr %37, align 4, !tbaa !38
  %indvars.iv.next = add nuw nsw i64 %indvars.iv, 1
  %exitcond.not = icmp eq i64 %indvars.iv.next, 8
  br i1 %exitcond.not, label %38, label %9, !llvm.loop !46

38:                                               ; preds = %9
  ret void
}